; Function Attrs: nounwind sspstrong uwtable
define dso_local void @tcg_gen_gvec_2i_ool(i32 noundef %0, i32 noundef %1, ptr noundef %2, i32 noundef %3, i32 noundef %4, i32 noundef %5, ptr noundef readonly captures(none) %6) local_unnamed_addr #2 {
  switch i32 %3, label %10 [
    i32 8, label %8
    i32 16, label %8
    i32 32, label %8
  ]

8:                                                ; preds = %7, %7, %7
  %9 = icmp ule i32 %3, %4
  br label %check_size_align.exit.i

10:                                               ; preds = %7
  %11 = icmp eq i32 %3, %4
  br label %check_size_align.exit.i

check_size_align.exit.i:                          ; preds = %10, %8
  %.sink.i.i = phi i1 [ %9, %8 ], [ %11, %10 ]
  tail call void @llvm.assume(i1 %.sink.i.i)
  %12 = icmp ult i32 %4, 2049
  tail call void @llvm.assume(i1 %12)
  %13 = icmp samesign ugt i32 %4, 15
  %14 = select i1 %13, i32 15, i32 7
  %15 = and i32 %14, %4
  %16 = icmp eq i32 %15, 0
  tail call void @llvm.assume(i1 %16)
  %17 = add i32 %5, 2097152
  %18 = icmp ult i32 %17, 4194304
  br i1 %18, label %simd_desc.exit, label %19

19:                                               ; preds = %check_size_align.exit.i
  %20 = icmp ult i32 %5, 4194304
  tail call void @llvm.assume(i1 %20)
  br label %simd_desc.exit

simd_desc.exit:                                   ; preds = %check_size_align.exit.i, %19
  %21 = lshr i32 %3, 3
  %22 = lshr i32 %4, 3
  %23 = add nuw nsw i32 %22, 255
  %24 = icmp eq i32 %21, %22
  %25 = shl i32 %21, 8
  %26 = add i32 %25, 768
  %27 = and i32 %26, 768
  %28 = select i1 %24, i32 512, i32 %27
  %29 = and i32 %23, 255
  %30 = or disjoint i32 %29, %28
  %31 = shl i32 %5, 10
  %32 = or disjoint i32 %30, %31
  %33 = tail call ptr @tcg_constant_i32(i32 noundef %32) #10
  %34 = tail call ptr @tcg_temp_ebb_new_ptr() #10
  %35 = tail call ptr @tcg_temp_ebb_new_ptr() #10
  %36 = load ptr, ptr @tcg_env, align 8
  %37 = zext i32 %0 to i64
  tail call void @tcg_gen_addi_i64(ptr noundef %34, ptr noundef %36, i64 noundef range(i64 0, 4294967296) %37) #10
  %38 = load ptr, ptr @tcg_env, align 8
  %39 = zext i32 %1 to i64
  tail call void @tcg_gen_addi_i64(ptr noundef %35, ptr noundef %38, i64 noundef range(i64 0, 4294967296) %39) #10
  tail call void %6(ptr noundef %34, ptr noundef %35, ptr noundef %2, ptr noundef %33) #10
  tail call void @tcg_temp_free_ptr(ptr noundef %34) #10
  tail call void @tcg_temp_free_ptr(ptr noundef %35) #10
  ret void
}